target datalayout = "e-m:e-p270:32:32-p271:32:32-p272:64:64-i64:64-i128:128-f80:128-n8:16:32:64-S128"
target triple = "x86_64-pc-linux-gnu"

%struct.OSSL_TIME = type { i64 }
%struct.CRYPTO_REF_COUNT = type { i32 }
%struct.crypto_ex_data_st = type { ptr, ptr }
%struct.srp_ctx_st = type { ptr, ptr, ptr, ptr, ptr, ptr, ptr, ptr, ptr, ptr, ptr, ptr, ptr, ptr, i32, i64 }
%struct.ssl_ctx_st = type { ptr, ptr, ptr, ptr, ptr, ptr, ptr, i64, ptr, ptr, i32, %struct.OSSL_TIME, ptr, ptr, ptr, %struct.anon.3, %struct.CRYPTO_REF_COUNT, ptr, ptr, ptr, ptr, ptr, ptr, ptr, ptr, ptr, %struct.crypto_ex_data_st, ptr, ptr, ptr, ptr, ptr, ptr, ptr, i64, i32, i32, i32, i64, ptr, ptr, i32, ptr, ptr, i32, i64, [32 x i8], ptr, ptr, ptr, i32, ptr, ptr, ptr, i64, i64, i64, i64, ptr, ptr, ptr, ptr, ptr, %struct.anon.4, ptr, ptr, ptr, ptr, %struct.srp_ctx_st, %struct.dane_ctx_st, ptr, ptr, ptr, ptr, i32, i32, ptr, ptr, i64, i64, ptr, ptr, ptr, i64, ptr, ptr, i32, ptr, ptr, ptr, [14 x i32], [24 x ptr], [14 x ptr], [14 x i64], i64, ptr, ptr, ptr, i64, i64, ptr, i64, i64, i32, i32, i32, i32, ptr, i64, ptr, i64, i64, ptr, ptr }
%struct.anon.3 = type { i32, i32, i32, i32, i32, i32, i32, i32, i32, i32, i32 }
%struct.anon.4 = type { ptr, ptr, [16 x i8], ptr, ptr, ptr, ptr, ptr, i32, i8, i64, ptr, i64, ptr, i64, ptr, i64, ptr, ptr, i64, ptr, ptr, ptr, i64, ptr, ptr, ptr, ptr, [32 x i8] }
%struct.dane_ctx_st = type { ptr, ptr, i8, i64 }
%struct.tls_sigalg_info_st = type { ptr, i16, ptr, ptr, ptr, ptr, ptr, ptr, ptr, ptr, i32, i32, i32 }
%struct.SSL_CERT_LOOKUP = type { i32, i32 }

@.str.2 = private unnamed_addr constant [24 x i8] c"../openssl/ssl/t1_lib.c\00", align 1

; Function Attrs: nounwind uwtable
define i32 @ssl_load_sigalgs(ptr noundef %0) #1 {
  %2 = alloca i32, align 4
  %3 = alloca ptr, align 8
  %4 = alloca i64, align 8
  %5 = alloca i32, align 4
  store ptr %0, ptr %3, align 8, !tbaa !80
  call void @llvm.lifetime.start.p0(i64 8, ptr %4) #8
  %6 = load ptr, ptr %3, align 8, !tbaa !80
  %7 = getelementptr inbounds nuw %struct.ssl_ctx_st, ptr %6, i32 0, i32 0
  %8 = load ptr, ptr %7, align 8, !tbaa !81
  %9 = load ptr, ptr %3, align 8, !tbaa !80
  %10 = call i32 @OSSL_PROVIDER_do_all(ptr noundef %8, ptr noundef @discover_provider_sigalgs, ptr noundef %9)
  %11 = icmp ne i32 %10, 0
  br i1 %11, label %13, label %12

12:                                               ; preds = %1
  store i32 0, ptr %2, align 4
  store i32 1, ptr %5, align 4
  br label %67

13:                                               ; preds = %1
  %14 = load ptr, ptr %3, align 8, !tbaa !80
  %15 = getelementptr inbounds nuw %struct.ssl_ctx_st, ptr %14, i32 0, i32 101
  %16 = load i64, ptr %15, align 8, !tbaa !116
  %17 = icmp ugt i64 %16, 0
  br i1 %17, label %18, label %66

18:                                               ; preds = %13
  %19 = load ptr, ptr %3, align 8, !tbaa !80
  %20 = getelementptr inbounds nuw %struct.ssl_ctx_st, ptr %19, i32 0, i32 40
  %21 = load ptr, ptr %20, align 8, !tbaa !117
  call void @CRYPTO_free(ptr noundef %21, ptr noundef @.str.2, i32 noundef 730)
  %22 = load ptr, ptr %3, align 8, !tbaa !80
  %23 = getelementptr inbounds nuw %struct.ssl_ctx_st, ptr %22, i32 0, i32 101
  %24 = load i64, ptr %23, align 8, !tbaa !116
  %25 = mul i64 8, %24
  %26 = call noalias ptr @CRYPTO_zalloc(i64 noundef %25, ptr noundef @.str.2, i32 noundef 731)
  %27 = load ptr, ptr %3, align 8, !tbaa !80
  %28 = getelementptr inbounds nuw %struct.ssl_ctx_st, ptr %27, i32 0, i32 40
  store ptr %26, ptr %28, align 8, !tbaa !117
  %29 = load ptr, ptr %3, align 8, !tbaa !80
  %30 = getelementptr inbounds nuw %struct.ssl_ctx_st, ptr %29, i32 0, i32 40
  %31 = load ptr, ptr %30, align 8, !tbaa !117
  %32 = icmp eq ptr %31, null
  br i1 %32, label %33, label %34

33:                                               ; preds = %18
  store i32 0, ptr %2, align 4
  store i32 1, ptr %5, align 4
  br label %67

34:                                               ; preds = %18
  store i64 0, ptr %4, align 8, !tbaa !3
  br label %35

35:                                               ; preds = %62, %34
  %36 = load i64, ptr %4, align 8, !tbaa !3
  %37 = load ptr, ptr %3, align 8, !tbaa !80
  %38 = getelementptr inbounds nuw %struct.ssl_ctx_st, ptr %37, i32 0, i32 101
  %39 = load i64, ptr %38, align 8, !tbaa !116
  %40 = icmp ult i64 %36, %39
  br i1 %40, label %41, label %65

41:                                               ; preds = %35
  %42 = load ptr, ptr %3, align 8, !tbaa !80
  %43 = getelementptr inbounds nuw %struct.ssl_ctx_st, ptr %42, i32 0, i32 100
  %44 = load ptr, ptr %43, align 8, !tbaa !118
  %45 = load i64, ptr %4, align 8, !tbaa !3
  %46 = getelementptr inbounds nuw %struct.tls_sigalg_info_st, ptr %44, i64 %45
  %47 = getelementptr inbounds nuw %struct.tls_sigalg_info_st, ptr %46, i32 0, i32 2
  %48 = load ptr, ptr %47, align 8, !tbaa !119
  %49 = call i32 @OBJ_txt2nid(ptr noundef %48)
  %50 = load ptr, ptr %3, align 8, !tbaa !80
  %51 = getelementptr inbounds nuw %struct.ssl_ctx_st, ptr %50, i32 0, i32 40
  %52 = load ptr, ptr %51, align 8, !tbaa !117
  %53 = load i64, ptr %4, align 8, !tbaa !3
  %54 = getelementptr inbounds nuw %struct.SSL_CERT_LOOKUP, ptr %52, i64 %53
  %55 = getelementptr inbounds nuw %struct.SSL_CERT_LOOKUP, ptr %54, i32 0, i32 0
  store i32 %49, ptr %55, align 4, !tbaa !121
  %56 = load ptr, ptr %3, align 8, !tbaa !80
  %57 = getelementptr inbounds nuw %struct.ssl_ctx_st, ptr %56, i32 0, i32 40
  %58 = load ptr, ptr %57, align 8, !tbaa !117
  %59 = load i64, ptr %4, align 8, !tbaa !3
  %60 = getelementptr inbounds nuw %struct.SSL_CERT_LOOKUP, ptr %58, i64 %59
  %61 = getelementptr inbounds nuw %struct.SSL_CERT_LOOKUP, ptr %60, i32 0, i32 1
  store i32 0, ptr %61, align 4, !tbaa !123
  br label %62

62:                                               ; preds = %41
  %63 = load i64, ptr %4, align 8, !tbaa !3
  %64 = add i64 %63, 1
  store i64 %64, ptr %4, align 8, !tbaa !3
  br label %35, !llvm.loop !124

65:                                               ; preds = %35
  br label %66

66:                                               ; preds = %65, %13
  store i32 1, ptr %2, align 4
  store i32 1, ptr %5, align 4
  br label %67

67:                                               ; preds = %66, %33, %12
  call void @llvm.lifetime.end.p0(i64 8, ptr %4) #8
  %68 = load i32, ptr %2, align 4
  ret i32 %68
}