; Function Attrs: nounwind uwtable
define range(i32 0, 2) i32 @ssl_load_sigalgs(ptr noundef %0) local_unnamed_addr #2 {
  %2 = load ptr, ptr %0, align 8, !tbaa !76
  %3 = tail call i32 @OSSL_PROVIDER_do_all(ptr noundef %2, ptr noundef nonnull @discover_provider_sigalgs, ptr noundef nonnull %0) #14
  %.not = icmp eq i32 %3, 0
  br i1 %.not, label %.loopexit, label %4

4:                                                ; preds = %1
  %5 = getelementptr inbounds nuw i8, ptr %0, i64 1688
  %6 = load i64, ptr %5, align 8, !tbaa !110
  %.not17 = icmp eq i64 %6, 0
  br i1 %.not17, label %.loopexit, label %7

7:                                                ; preds = %4
  %8 = getelementptr inbounds nuw i8, ptr %0, i64 352
  %9 = load ptr, ptr %8, align 8, !tbaa !111
  tail call void @CRYPTO_free(ptr noundef %9, ptr noundef nonnull @.str.2, i32 noundef 730) #14
  %10 = load i64, ptr %5, align 8, !tbaa !110
  %11 = shl i64 %10, 3
  %12 = tail call noalias ptr @CRYPTO_zalloc(i64 noundef %11, ptr noundef nonnull @.str.2, i32 noundef 731) #14
  store ptr %12, ptr %8, align 8, !tbaa !111
  %13 = icmp eq ptr %12, null
  br i1 %13, label %.loopexit, label %.preheader

.preheader:                                       ; preds = %7
  %14 = load i64, ptr %5, align 8, !tbaa !110
  %.not19 = icmp eq i64 %14, 0
  br i1 %.not19, label %.loopexit, label %.lr.ph

.lr.ph:                                           ; preds = %.preheader
  %15 = getelementptr inbounds nuw i8, ptr %0, i64 1680
  br label %16

16:                                               ; preds = %.lr.ph, %16
  %.018 = phi i64 [ 0, %.lr.ph ], [ %24, %16 ]
  %17 = load ptr, ptr %15, align 8, !tbaa !112
  %18 = getelementptr inbounds nuw %struct.tls_sigalg_info_st, ptr %17, i64 %.018, i32 2
  %19 = load ptr, ptr %18, align 8, !tbaa !113
  %20 = tail call i32 @OBJ_txt2nid(ptr noundef %19) #14
  %21 = load ptr, ptr %8, align 8, !tbaa !111
  %22 = getelementptr inbounds nuw %struct.SSL_CERT_LOOKUP, ptr %21, i64 %.018
  store i32 %20, ptr %22, align 4, !tbaa !115
  %23 = getelementptr inbounds nuw %struct.SSL_CERT_LOOKUP, ptr %21, i64 %.018, i32 1
  store i32 0, ptr %23, align 4, !tbaa !117
  %24 = add nuw i64 %.018, 1
  %25 = load i64, ptr %5, align 8, !tbaa !110
  %26 = icmp ult i64 %24, %25
  br i1 %26, label %16, label %.loopexit, !llvm.loop !118

.loopexit:                                        ; preds = %16, %.preheader, %4, %7, %1
  %.016 = phi i32 [ 0, %1 ], [ 0, %7 ], [ 1, %4 ], [ 1, %.preheader ], [ 1, %16 ]
  ret i32 %.016
}